; Function Attrs: nounwind uwtable
define hidden void @_glfwTerminateJoysticksLinux() local_unnamed_addr #0 {
  br label %4

1:                                                ; preds = %12
  %2 = load i32, ptr getelementptr inbounds nuw (i8, ptr @_glfw, i64 143584), align 8, !tbaa !3
  %3 = icmp sgt i32 %2, 0
  br i1 %3, label %13, label %21

4:                                                ; preds = %0, %12
  %indvars.iv = phi i64 [ 0, %0 ], [ %indvars.iv.next, %12 ]
  %5 = getelementptr inbounds nuw %struct._GLFWjoystick, ptr getelementptr inbounds nuw (i8, ptr @_glfw, i64 1936), i64 %indvars.iv
  %6 = getelementptr inbounds nuw i8, ptr %5, i64 4
  %7 = load i32, ptr %6, align 4, !tbaa !98
  %.not6 = icmp eq i32 %7, 0
  br i1 %.not6, label %12, label %8

8:                                                ; preds = %4
  tail call void @_glfwInputJoystick(ptr noundef nonnull %5, i32 noundef 262146) #13
  %9 = getelementptr inbounds nuw i8, ptr %5, i64 240
  %10 = load i32, ptr %9, align 8, !tbaa !94
  %11 = tail call i32 @close(i32 noundef %10) #13
  tail call void @_glfwFreeJoystick(ptr noundef nonnull %5) #13
  br label %12

12:                                               ; preds = %8, %4
  %indvars.iv.next = add nuw nsw i64 %indvars.iv, 1
  %exitcond.not = icmp eq i64 %indvars.iv.next, 16
  br i1 %exitcond.not, label %1, label %4

13:                                               ; preds = %1
  %14 = load i32, ptr getelementptr inbounds nuw (i8, ptr @_glfw, i64 143588), align 4, !tbaa !105
  %15 = icmp sgt i32 %14, 0
  br i1 %15, label %16, label %18

16:                                               ; preds = %13
  %17 = tail call i32 @inotify_rm_watch(i32 noundef %2, i32 noundef %14) #13
  %.pre = load i32, ptr getelementptr inbounds nuw (i8, ptr @_glfw, i64 143584), align 8, !tbaa !3
  br label %18

18:                                               ; preds = %16, %13
  %19 = phi i32 [ %.pre, %16 ], [ %2, %13 ]
  %20 = tail call i32 @close(i32 noundef %19) #13
  br label %21

21:                                               ; preds = %18, %1
  %22 = load i32, ptr getelementptr inbounds nuw (i8, ptr @_glfw, i64 143656), align 8, !tbaa !106
  %.not = icmp eq i32 %22, 0
  br i1 %.not, label %24, label %23

23:                                               ; preds = %21
  tail call void @regfree(ptr noundef nonnull getelementptr inbounds nuw (i8, ptr @_glfw, i64 143592)) #13
  br label %24

24:                                               ; preds = %23, %21
  ret void
}